; Function Attrs: mustprogress uwtable
define noundef range(i64 1, 5) i64 @_ZN3net10QuicFramer15GetStreamIdSizeEj(i32 noundef %0) local_unnamed_addr #0 align 2 personality ptr @__gxx_personality_v0 {
  %2 = alloca %"class.logging::LogMessage", align 8
  br label %3

3:                                                ; preds = %1, %5
  %.01225 = phi i32 [ %0, %1 ], [ %6, %5 ]
  %.01624 = phi i32 [ 1, %1 ], [ %7, %5 ]
  %4 = icmp ult i32 %.01225, 256
  br i1 %4, label %8, label %5

5:                                                ; preds = %3
  %6 = lshr i32 %.01225, 8
  %7 = add nuw nsw i32 %.01624, 1
  %exitcond.not = icmp eq i32 %7, 5
  br i1 %exitcond.not, label %10, label %3, !llvm.loop !77

8:                                                ; preds = %3
  %9 = zext nneg i32 %.01624 to i64
  br label %.critedge18

10:                                               ; preds = %5
  %11 = tail call noundef zeroext i1 @_ZN7logging22ShouldCreateLogMessageEi(i32 noundef 2)
  br i1 %11, label %12, label %.critedge18

12:                                               ; preds = %10
  call void @llvm.lifetime.start.p0(i64 408, ptr nonnull %2) #26
  call void @_ZN7logging10LogMessageC1EPKcii(ptr noundef nonnull align 8 dereferenceable(404) %2, ptr noundef nonnull @.str, i32 noundef 238, i32 noundef 2)
  %13 = getelementptr inbounds nuw i8, ptr %2, i64 8
  %14 = invoke noundef nonnull align 8 dereferenceable(8) ptr @_ZSt16__ostream_insertIcSt11char_traitsIcEERSt13basic_ostreamIT_T0_ES6_PKS3_l(ptr noundef nonnull align 8 dereferenceable(8) %13, ptr noundef nonnull @.str.1, i64 noundef 33)
          to label %.critedge unwind label %15

.critedge:                                        ; preds = %12
  call void @_ZN7logging10LogMessageD1Ev(ptr noundef nonnull align 8 dereferenceable(404) %2) #26
  call void @llvm.lifetime.end.p0(i64 408, ptr nonnull %2) #26
  br label %.critedge18

15:                                               ; preds = %12
  %16 = landingpad { ptr, i32 }
          cleanup
  call void @_ZN7logging10LogMessageD1Ev(ptr noundef nonnull align 8 dereferenceable(404) %2) #26
  call void @llvm.lifetime.end.p0(i64 408, ptr nonnull %2) #26
  resume { ptr, i32 } %16

.critedge18:                                      ; preds = %.critedge, %10, %8
  %.1 = phi i64 [ %9, %8 ], [ 4, %10 ], [ 4, %.critedge ]
  ret i64 %.1
}